target datalayout = "e-m:e-p270:32:32-p271:32:32-p272:64:64-i64:64-i128:128-f80:128-n8:16:32:64-S128"
target triple = "x86_64-pc-linux-gnu"

%struct.Curl_cwriter = type { ptr, ptr, ptr, i32 }
%struct.cw_out_ctx = type { %struct.Curl_cwriter, ptr, i8 }
%struct.dynbuf = type { ptr, i64, i64, i64 }
%struct.cw_out_buf = type { ptr, %struct.dynbuf, i32 }

@Curl_cfree = external global ptr, align 8
@Curl_ccalloc = external global ptr, align 8

; Function Attrs: nounwind uwtable
define internal void @cw_out_buf_free(ptr noundef %0) #0 {
  %2 = alloca ptr, align 8
  store ptr %0, ptr %2, align 8, !tbaa !97
  %3 = load ptr, ptr %2, align 8, !tbaa !97
  %4 = icmp ne ptr %3, null
  br i1 %4, label %5, label %10

5:                                                ; preds = %1
  %6 = load ptr, ptr %2, align 8, !tbaa !97
  %7 = getelementptr inbounds nuw %struct.cw_out_buf, ptr %6, i32 0, i32 1
  call void @Curl_dyn_free(ptr noundef %7)
  %8 = load ptr, ptr @Curl_cfree, align 8, !tbaa !100
  %9 = load ptr, ptr %2, align 8, !tbaa !97
  call void %8(ptr noundef %9)
  br label %10

10:                                               ; preds = %5, %1
  ret void
}

; Function Attrs: nounwind uwtable
define internal ptr @cw_out_buf_create(i32 noundef %0) #0 {
  %2 = alloca i32, align 4
  %3 = alloca ptr, align 8
  store i32 %0, ptr %2, align 4, !tbaa !19
  call void @llvm.lifetime.start.p0(i64 8, ptr %3) #3
  %4 = load ptr, ptr @Curl_ccalloc, align 8, !tbaa !100
  %5 = call ptr %4(i64 noundef 1, i64 noundef 48)
  store ptr %5, ptr %3, align 8, !tbaa !97
  %6 = load ptr, ptr %3, align 8, !tbaa !97
  %7 = icmp ne ptr %6, null
  br i1 %7, label %8, label %14

8:                                                ; preds = %1
  %9 = load i32, ptr %2, align 4, !tbaa !19
  %10 = load ptr, ptr %3, align 8, !tbaa !97
  %11 = getelementptr inbounds nuw %struct.cw_out_buf, ptr %10, i32 0, i32 2
  store i32 %9, ptr %11, align 8, !tbaa !101
  %12 = load ptr, ptr %3, align 8, !tbaa !97
  %13 = getelementptr inbounds nuw %struct.cw_out_buf, ptr %12, i32 0, i32 1
  call void @Curl_dyn_init(ptr noundef %13, i64 noundef 67108864)
  br label %14

14:                                               ; preds = %8, %1
  %15 = load ptr, ptr %3, align 8, !tbaa !97
  call void @llvm.lifetime.end.p0(i64 8, ptr %3) #3
  ret ptr %15
}

; Function Attrs: nounwind uwtable
define internal i64 @cw_out_bufs_len(ptr noundef %0) #0 {
  %2 = alloca ptr, align 8
  %3 = alloca ptr, align 8
  %4 = alloca i64, align 8
  store ptr %0, ptr %2, align 8, !tbaa !14
  call void @llvm.lifetime.start.p0(i64 8, ptr %3) #3
  %5 = load ptr, ptr %2, align 8, !tbaa !14
  %6 = getelementptr inbounds nuw %struct.cw_out_ctx, ptr %5, i32 0, i32 1
  %7 = load ptr, ptr %6, align 8, !tbaa !16
  store ptr %7, ptr %3, align 8, !tbaa !97
  call void @llvm.lifetime.start.p0(i64 8, ptr %4) #3
  store i64 0, ptr %4, align 8, !tbaa !22
  br label %8

8:                                                ; preds = %11, %1
  %9 = load ptr, ptr %3, align 8, !tbaa !97
  %10 = icmp ne ptr %9, null
  br i1 %10, label %11, label %20

11:                                               ; preds = %8
  %12 = load ptr, ptr %3, align 8, !tbaa !97
  %13 = getelementptr inbounds nuw %struct.cw_out_buf, ptr %12, i32 0, i32 1
  %14 = call i64 @Curl_dyn_len(ptr noundef %13)
  %15 = load i64, ptr %4, align 8, !tbaa !22
  %16 = add i64 %15, %14
  store i64 %16, ptr %4, align 8, !tbaa !22
  %17 = load ptr, ptr %3, align 8, !tbaa !97
  %18 = getelementptr inbounds nuw %struct.cw_out_buf, ptr %17, i32 0, i32 0
  %19 = load ptr, ptr %18, align 8, !tbaa !95
  store ptr %19, ptr %3, align 8, !tbaa !97
  br label %8, !llvm.loop !122

20:                                               ; preds = %8
  %21 = load i64, ptr %4, align 8, !tbaa !22
  call void @llvm.lifetime.end.p0(i64 8, ptr %4) #3
  call void @llvm.lifetime.end.p0(i64 8, ptr %3) #3
  ret i64 %21
}

; Function Attrs: nounwind uwtable
define internal void @cw_out_bufs_free(ptr noundef %0) #0 {
  %2 = alloca ptr, align 8
  %3 = alloca ptr, align 8
  store ptr %0, ptr %2, align 8, !tbaa !14
  br label %4

4:                                                ; preds = %9, %1
  %5 = load ptr, ptr %2, align 8, !tbaa !14
  %6 = getelementptr inbounds nuw %struct.cw_out_ctx, ptr %5, i32 0, i32 1
  %7 = load ptr, ptr %6, align 8, !tbaa !16
  %8 = icmp ne ptr %7, null
  br i1 %8, label %9, label %21

9:                                                ; preds = %4
  call void @llvm.lifetime.start.p0(i64 8, ptr %3) #3
  %10 = load ptr, ptr %2, align 8, !tbaa !14
  %11 = getelementptr inbounds nuw %struct.cw_out_ctx, ptr %10, i32 0, i32 1
  %12 = load ptr, ptr %11, align 8, !tbaa !16
  %13 = getelementptr inbounds nuw %struct.cw_out_buf, ptr %12, i32 0, i32 0
  %14 = load ptr, ptr %13, align 8, !tbaa !95
  store ptr %14, ptr %3, align 8, !tbaa !97
  %15 = load ptr, ptr %2, align 8, !tbaa !14
  %16 = getelementptr inbounds nuw %struct.cw_out_ctx, ptr %15, i32 0, i32 1
  %17 = load ptr, ptr %16, align 8, !tbaa !16
  call void @cw_out_buf_free(ptr noundef %17)
  %18 = load ptr, ptr %3, align 8, !tbaa !97
  %19 = load ptr, ptr %2, align 8, !tbaa !14
  %20 = getelementptr inbounds nuw %struct.cw_out_ctx, ptr %19, i32 0, i32 1
  store ptr %18, ptr %20, align 8, !tbaa !16
  call void @llvm.lifetime.end.p0(i64 8, ptr %3) #3
  br label %4, !llvm.loop !98

21:                                               ; preds = %4
  ret void
}

; Function Attrs: nounwind uwtable
define internal i32 @cw_out_append(ptr noundef %0, i32 noundef %1, ptr noundef %2, i64 noundef %3) #0 {
  %5 = alloca i32, align 4
  %6 = alloca ptr, align 8
  %7 = alloca i32, align 4
  %8 = alloca ptr, align 8
  %9 = alloca i64, align 8
  %10 = alloca ptr, align 8
  %11 = alloca i32, align 4
  store ptr %0, ptr %6, align 8, !tbaa !14
  store i32 %1, ptr %7, align 4, !tbaa !19
  store ptr %2, ptr %8, align 8, !tbaa !20
  store i64 %3, ptr %9, align 8, !tbaa !22
  %12 = load ptr, ptr %6, align 8, !tbaa !14
  %13 = call i64 @cw_out_bufs_len(ptr noundef %12)
  %14 = load i64, ptr %9, align 8, !tbaa !22
  %15 = add i64 %13, %14
  %16 = icmp ugt i64 %15, 67108864
  br i1 %16, label %17, label %18

17:                                               ; preds = %4
  store i32 100, ptr %5, align 4
  br label %62

18:                                               ; preds = %4
  %19 = load ptr, ptr %6, align 8, !tbaa !14
  %20 = getelementptr inbounds nuw %struct.cw_out_ctx, ptr %19, i32 0, i32 1
  %21 = load ptr, ptr %20, align 8, !tbaa !16
  %22 = icmp ne ptr %21, null
  br i1 %22, label %23, label %34

23:                                               ; preds = %18
  %24 = load ptr, ptr %6, align 8, !tbaa !14
  %25 = getelementptr inbounds nuw %struct.cw_out_ctx, ptr %24, i32 0, i32 1
  %26 = load ptr, ptr %25, align 8, !tbaa !16
  %27 = getelementptr inbounds nuw %struct.cw_out_buf, ptr %26, i32 0, i32 2
  %28 = load i32, ptr %27, align 8, !tbaa !101
  %29 = load i32, ptr %7, align 4, !tbaa !19
  %30 = icmp ne i32 %28, %29
  br i1 %30, label %34, label %31

31:                                               ; preds = %23
  %32 = load i32, ptr %7, align 4, !tbaa !19
  %33 = icmp eq i32 %32, 2
  br i1 %33, label %34, label %52

34:                                               ; preds = %31, %23, %18
  call void @llvm.lifetime.start.p0(i64 8, ptr %10) #3
  %35 = load i32, ptr %7, align 4, !tbaa !19
  %36 = call ptr @cw_out_buf_create(i32 noundef %35)
  store ptr %36, ptr %10, align 8, !tbaa !97
  %37 = load ptr, ptr %10, align 8, !tbaa !97
  %38 = icmp ne ptr %37, null
  br i1 %38, label %40, label %39

39:                                               ; preds = %34
  store i32 27, ptr %5, align 4
  store i32 1, ptr %11, align 4
  br label %49

40:                                               ; preds = %34
  %41 = load ptr, ptr %6, align 8, !tbaa !14
  %42 = getelementptr inbounds nuw %struct.cw_out_ctx, ptr %41, i32 0, i32 1
  %43 = load ptr, ptr %42, align 8, !tbaa !16
  %44 = load ptr, ptr %10, align 8, !tbaa !97
  %45 = getelementptr inbounds nuw %struct.cw_out_buf, ptr %44, i32 0, i32 0
  store ptr %43, ptr %45, align 8, !tbaa !95
  %46 = load ptr, ptr %10, align 8, !tbaa !97
  %47 = load ptr, ptr %6, align 8, !tbaa !14
  %48 = getelementptr inbounds nuw %struct.cw_out_ctx, ptr %47, i32 0, i32 1
  store ptr %46, ptr %48, align 8, !tbaa !16
  store i32 0, ptr %11, align 4
  br label %49

49:                                               ; preds = %40, %39
  call void @llvm.lifetime.end.p0(i64 8, ptr %10) #3
  %50 = load i32, ptr %11, align 4
  switch i32 %50, label %64 [
    i32 0, label %51
    i32 1, label %62
  ]

51:                                               ; preds = %49
  br label %52

52:                                               ; preds = %51, %31
  br label %53

53:                                               ; preds = %52
  br label %54

54:                                               ; preds = %53
  %55 = load ptr, ptr %6, align 8, !tbaa !14
  %56 = getelementptr inbounds nuw %struct.cw_out_ctx, ptr %55, i32 0, i32 1
  %57 = load ptr, ptr %56, align 8, !tbaa !16
  %58 = getelementptr inbounds nuw %struct.cw_out_buf, ptr %57, i32 0, i32 1
  %59 = load ptr, ptr %8, align 8, !tbaa !20
  %60 = load i64, ptr %9, align 8, !tbaa !22
  %61 = call i32 @Curl_dyn_addn(ptr noundef %58, ptr noundef %59, i64 noundef %60)
  store i32 %61, ptr %5, align 4
  br label %62

62:                                               ; preds = %54, %49, %17
  %63 = load i32, ptr %5, align 4
  ret i32 %63

64:                                               ; preds = %49
  unreachable
}

; Function Attrs: nounwind uwtable
define internal i32 @cw_out_do_write(ptr noundef %0, ptr noundef %1, i32 noundef %2, i1 noundef zeroext %3, ptr noundef %4, i64 noundef %5) #0 {
  %7 = alloca i32, align 4
  %8 = alloca ptr, align 8
  %9 = alloca ptr, align 8
  %10 = alloca i32, align 4
  %11 = alloca i8, align 1
  %12 = alloca ptr, align 8
  %13 = alloca i64, align 8
  %14 = alloca i32, align 4
  %15 = alloca i32, align 4
  %16 = alloca i64, align 8
  store ptr %0, ptr %8, align 8, !tbaa !14
  store ptr %1, ptr %9, align 8, !tbaa !3
  store i32 %2, ptr %10, align 4, !tbaa !19
  %17 = zext i1 %3 to i8
  store i8 %17, ptr %11, align 1, !tbaa !24
  store ptr %4, ptr %12, align 8, !tbaa !20
  store i64 %5, ptr %13, align 8, !tbaa !22
  call void @llvm.lifetime.start.p0(i64 4, ptr %14) #3
  store i32 0, ptr %14, align 4, !tbaa !19
  %18 = load ptr, ptr %8, align 8, !tbaa !14
  %19 = getelementptr inbounds nuw %struct.cw_out_ctx, ptr %18, i32 0, i32 1
  %20 = load ptr, ptr %19, align 8, !tbaa !16
  %21 = icmp ne ptr %20, null
  br i1 %21, label %22, label %40

22:                                               ; preds = %6
  %23 = load ptr, ptr %8, align 8, !tbaa !14
  %24 = getelementptr inbounds nuw %struct.cw_out_ctx, ptr %23, i32 0, i32 1
  %25 = load ptr, ptr %24, align 8, !tbaa !16
  %26 = getelementptr inbounds nuw %struct.cw_out_buf, ptr %25, i32 0, i32 2
  %27 = load i32, ptr %26, align 8, !tbaa !101
  %28 = load i32, ptr %10, align 4, !tbaa !19
  %29 = icmp ne i32 %27, %28
  br i1 %29, label %30, label %40

30:                                               ; preds = %22
  %31 = load ptr, ptr %8, align 8, !tbaa !14
  %32 = load ptr, ptr %9, align 8, !tbaa !3
  %33 = load ptr, ptr %8, align 8, !tbaa !14
  %34 = getelementptr inbounds nuw %struct.cw_out_ctx, ptr %33, i32 0, i32 1
  %35 = call i32 @cw_out_flush_chain(ptr noundef %31, ptr noundef %32, ptr noundef %34, i1 noundef zeroext true)
  store i32 %35, ptr %14, align 4, !tbaa !19
  %36 = load i32, ptr %14, align 4, !tbaa !19
  %37 = icmp ne i32 %36, 0
  br i1 %37, label %38, label %39

38:                                               ; preds = %30
  br label %103

39:                                               ; preds = %30
  br label %40

40:                                               ; preds = %39, %22, %6
  %41 = load ptr, ptr %8, align 8, !tbaa !14
  %42 = getelementptr inbounds nuw %struct.cw_out_ctx, ptr %41, i32 0, i32 1
  %43 = load ptr, ptr %42, align 8, !tbaa !16
  %44 = icmp ne ptr %43, null
  br i1 %44, label %45, label %67

45:                                               ; preds = %40
  %46 = load ptr, ptr %8, align 8, !tbaa !14
  %47 = load i32, ptr %10, align 4, !tbaa !19
  %48 = load ptr, ptr %12, align 8, !tbaa !20
  %49 = load i64, ptr %13, align 8, !tbaa !22
  %50 = call i32 @cw_out_append(ptr noundef %46, i32 noundef %47, ptr noundef %48, i64 noundef %49)
  store i32 %50, ptr %14, align 4, !tbaa !19
  %51 = load i32, ptr %14, align 4, !tbaa !19
  %52 = icmp ne i32 %51, 0
  br i1 %52, label %53, label %55

53:                                               ; preds = %45
  %54 = load i32, ptr %14, align 4, !tbaa !19
  store i32 %54, ptr %7, align 4
  store i32 1, ptr %15, align 4
  br label %115

55:                                               ; preds = %45
  %56 = load ptr, ptr %8, align 8, !tbaa !14
  %57 = load ptr, ptr %9, align 8, !tbaa !3
  %58 = load ptr, ptr %8, align 8, !tbaa !14
  %59 = getelementptr inbounds nuw %struct.cw_out_ctx, ptr %58, i32 0, i32 1
  %60 = load i8, ptr %11, align 1, !tbaa !24, !range !26, !noundef !27
  %61 = trunc i8 %60 to i1
  %62 = call i32 @cw_out_flush_chain(ptr noundef %56, ptr noundef %57, ptr noundef %59, i1 noundef zeroext %61)
  store i32 %62, ptr %14, align 4, !tbaa !19
  %63 = load i32, ptr %14, align 4, !tbaa !19
  %64 = icmp ne i32 %63, 0
  br i1 %64, label %65, label %66

65:                                               ; preds = %55
  br label %103

66:                                               ; preds = %55
  br label %102

67:                                               ; preds = %40
  call void @llvm.lifetime.start.p0(i64 8, ptr %16) #3
  %68 = load ptr, ptr %8, align 8, !tbaa !14
  %69 = load ptr, ptr %9, align 8, !tbaa !3
  %70 = load i32, ptr %10, align 4, !tbaa !19
  %71 = load i8, ptr %11, align 1, !tbaa !24, !range !26, !noundef !27
  %72 = trunc i8 %71 to i1
  %73 = load ptr, ptr %12, align 8, !tbaa !20
  %74 = load i64, ptr %13, align 8, !tbaa !22
  %75 = call i32 @cw_out_ptr_flush(ptr noundef %68, ptr noundef %69, i32 noundef %70, i1 noundef zeroext %72, ptr noundef %73, i64 noundef %74, ptr noundef %16)
  store i32 %75, ptr %14, align 4, !tbaa !19
  %76 = load i32, ptr %14, align 4, !tbaa !19
  %77 = icmp ne i32 %76, 0
  br i1 %77, label %78, label %80

78:                                               ; preds = %67
  %79 = load i32, ptr %14, align 4, !tbaa !19
  store i32 %79, ptr %7, align 4
  store i32 1, ptr %15, align 4
  br label %99

80:                                               ; preds = %67
  %81 = load i64, ptr %16, align 8, !tbaa !22
  %82 = load i64, ptr %13, align 8, !tbaa !22
  %83 = icmp ult i64 %81, %82
  br i1 %83, label %84, label %98

84:                                               ; preds = %80
  %85 = load ptr, ptr %8, align 8, !tbaa !14
  %86 = load i32, ptr %10, align 4, !tbaa !19
  %87 = load ptr, ptr %12, align 8, !tbaa !20
  %88 = load i64, ptr %16, align 8, !tbaa !22
  %89 = getelementptr inbounds nuw i8, ptr %87, i64 %88
  %90 = load i64, ptr %13, align 8, !tbaa !22
  %91 = load i64, ptr %16, align 8, !tbaa !22
  %92 = sub i64 %90, %91
  %93 = call i32 @cw_out_append(ptr noundef %85, i32 noundef %86, ptr noundef %89, i64 noundef %92)
  store i32 %93, ptr %14, align 4, !tbaa !19
  %94 = load i32, ptr %14, align 4, !tbaa !19
  %95 = icmp ne i32 %94, 0
  br i1 %95, label %96, label %97

96:                                               ; preds = %84
  store i32 2, ptr %15, align 4
  br label %99

97:                                               ; preds = %84
  br label %98

98:                                               ; preds = %97, %80
  store i32 0, ptr %15, align 4
  br label %99

99:                                               ; preds = %96, %98, %78
  call void @llvm.lifetime.end.p0(i64 8, ptr %16) #3
  %100 = load i32, ptr %15, align 4
  switch i32 %100, label %115 [
    i32 0, label %101
    i32 2, label %103
  ]

101:                                              ; preds = %99
  br label %102

102:                                              ; preds = %101, %66
  br label %103

103:                                              ; preds = %102, %99, %65, %38
  %104 = load i32, ptr %14, align 4, !tbaa !19
  %105 = icmp ne i32 %104, 0
  br i1 %105, label %106, label %113

106:                                              ; preds = %103
  %107 = load ptr, ptr %8, align 8, !tbaa !14
  %108 = getelementptr inbounds nuw %struct.cw_out_ctx, ptr %107, i32 0, i32 2
  %109 = load i8, ptr %108, align 8
  %110 = and i8 %109, -3
  %111 = or i8 %110, 2
  store i8 %111, ptr %108, align 8
  %112 = load ptr, ptr %8, align 8, !tbaa !14
  call void @cw_out_bufs_free(ptr noundef %112)
  br label %113

113:                                              ; preds = %106, %103
  %114 = load i32, ptr %14, align 4, !tbaa !19
  store i32 %114, ptr %7, align 4
  store i32 1, ptr %15, align 4
  br label %115

115:                                              ; preds = %113, %99, %53
  call void @llvm.lifetime.end.p0(i64 4, ptr %14) #3
  %116 = load i32, ptr %7, align 4
  ret i32 %116
}