; Function Attrs: nounwind uwtable
define internal fastcc i32 @cw_out_do_write(ptr noundef captures(none) %0, ptr noundef %1, i32 noundef range(i32 1, 3) %2, ptr noundef %3, i64 noundef %4) unnamed_addr #1 {
  %6 = alloca i64, align 8
  %7 = getelementptr inbounds nuw i8, ptr %0, i64 32
  %8 = load ptr, ptr %7, align 8, !tbaa !11
  %.not = icmp eq ptr %8, null
  br i1 %.not, label %.thread, label %9

9:                                                ; preds = %5
  %10 = getelementptr inbounds nuw i8, ptr %8, i64 40
  %11 = load i32, ptr %10, align 8, !tbaa !88
  %.not49 = icmp eq i32 %11, %2
  br i1 %.not49, label %.lr.ph.i.i.preheader, label %12

12:                                               ; preds = %9
  %13 = tail call fastcc i32 @cw_out_flush_chain(ptr noundef nonnull %0, ptr noundef %1, ptr noundef nonnull %7)
  %.not50 = icmp eq i32 %13, 0
  %.pre87 = load ptr, ptr %7, align 8, !tbaa !11
  br i1 %.not50, label %._crit_edge, label %.thread80

._crit_edge:                                      ; preds = %12
  %.not51 = icmp eq ptr %.pre87, null
  br i1 %.not51, label %.thread, label %.lr.ph.i.i.preheader

.lr.ph.i.i.preheader:                             ; preds = %9, %._crit_edge
  %.059.i.i.ph = phi ptr [ %8, %9 ], [ %.pre87, %._crit_edge ]
  br label %.lr.ph.i.i

.lr.ph.i.i:                                       ; preds = %.lr.ph.i.i.preheader, %.lr.ph.i.i
  %.059.i.i = phi ptr [ %.05.i.i, %.lr.ph.i.i ], [ %.059.i.i.ph, %.lr.ph.i.i.preheader ]
  %.08.i.i = phi i64 [ %16, %.lr.ph.i.i ], [ 0, %.lr.ph.i.i.preheader ]
  %14 = getelementptr inbounds nuw i8, ptr %.059.i.i, i64 8
  %15 = tail call i64 @Curl_dyn_len(ptr noundef nonnull %14) #5
  %16 = add i64 %15, %.08.i.i
  %.05.i.i = load ptr, ptr %.059.i.i, align 8, !tbaa !89
  %.not.i.i = icmp eq ptr %.05.i.i, null
  br i1 %.not.i.i, label %cw_out_bufs_len.exit.i, label %.lr.ph.i.i, !llvm.loop !90

cw_out_bufs_len.exit.i:                           ; preds = %.lr.ph.i.i
  %17 = add i64 %16, %4
  %18 = icmp ugt i64 %17, 67108864
  br i1 %18, label %cw_out_bufs_free.exit, label %19

19:                                               ; preds = %cw_out_bufs_len.exit.i
  %20 = load ptr, ptr %7, align 8, !tbaa !11
  %.not.i = icmp eq ptr %20, null
  br i1 %.not.i, label %26, label %21

21:                                               ; preds = %19
  %22 = getelementptr inbounds nuw i8, ptr %20, i64 40
  %23 = load i32, ptr %22, align 8, !tbaa !88
  %24 = icmp ne i32 %23, %2
  %25 = icmp eq i32 %2, 2
  %or.cond.i = or i1 %25, %24
  br i1 %or.cond.i, label %26, label %cw_out_append.exit

26:                                               ; preds = %21, %19
  %27 = load ptr, ptr @Curl_ccalloc, align 8, !tbaa !19
  %28 = tail call ptr %27(i64 noundef 1, i64 noundef 48) #5
  %.not.i21.i = icmp eq ptr %28, null
  br i1 %.not.i21.i, label %cw_out_bufs_free.exit, label %.thread.i

.thread.i:                                        ; preds = %26
  %29 = getelementptr inbounds nuw i8, ptr %28, i64 40
  store i32 %2, ptr %29, align 8, !tbaa !88
  %30 = getelementptr inbounds nuw i8, ptr %28, i64 8
  tail call void @Curl_dyn_init(ptr noundef nonnull %30, i64 noundef 67108864) #5
  %31 = load ptr, ptr %7, align 8, !tbaa !11
  store ptr %31, ptr %28, align 8, !tbaa !14
  store ptr %28, ptr %7, align 8, !tbaa !11
  br label %cw_out_append.exit

cw_out_append.exit:                               ; preds = %21, %.thread.i
  %32 = phi ptr [ %28, %.thread.i ], [ %20, %21 ]
  %33 = getelementptr inbounds nuw i8, ptr %32, i64 8
  %34 = tail call i32 @Curl_dyn_addn(ptr noundef nonnull %33, ptr noundef %3, i64 noundef %4) #5
  %.not54 = icmp eq i32 %34, 0
  br i1 %.not54, label %35, label %cw_out_bufs_free.exit

35:                                               ; preds = %cw_out_append.exit
  %36 = tail call fastcc i32 @cw_out_flush_chain(ptr noundef nonnull %0, ptr noundef %1, ptr noundef nonnull %7)
  br label %67

.thread:                                          ; preds = %5, %._crit_edge
  call void @llvm.lifetime.start.p0(i64 8, ptr nonnull %6) #5
  %37 = call fastcc i32 @cw_out_ptr_flush(ptr noundef nonnull %0, ptr noundef %1, i32 noundef %2, ptr noundef %3, i64 noundef %4, ptr noundef %6)
  %.not52 = icmp eq i32 %37, 0
  br i1 %.not52, label %38, label %66

38:                                               ; preds = %.thread
  %39 = load i64, ptr %6, align 8, !tbaa !91
  %40 = icmp ult i64 %39, %4
  br i1 %40, label %41, label %65

41:                                               ; preds = %38
  %42 = getelementptr inbounds nuw i8, ptr %3, i64 %39
  %43 = sub nuw i64 %4, %39
  %.056.i.i56 = load ptr, ptr %7, align 8, !tbaa !89
  %.not7.i.i57 = icmp eq ptr %.056.i.i56, null
  br i1 %.not7.i.i57, label %cw_out_bufs_len.exit.i63, label %.lr.ph.i.i58

.lr.ph.i.i58:                                     ; preds = %41, %.lr.ph.i.i58
  %.059.i.i59 = phi ptr [ %.05.i.i61, %.lr.ph.i.i58 ], [ %.056.i.i56, %41 ]
  %.08.i.i60 = phi i64 [ %46, %.lr.ph.i.i58 ], [ 0, %41 ]
  %44 = getelementptr inbounds nuw i8, ptr %.059.i.i59, i64 8
  %45 = tail call i64 @Curl_dyn_len(ptr noundef nonnull %44) #5
  %46 = add i64 %45, %.08.i.i60
  %.05.i.i61 = load ptr, ptr %.059.i.i59, align 8, !tbaa !89
  %.not.i.i62 = icmp eq ptr %.05.i.i61, null
  br i1 %.not.i.i62, label %cw_out_bufs_len.exit.i63, label %.lr.ph.i.i58, !llvm.loop !90

cw_out_bufs_len.exit.i63:                         ; preds = %.lr.ph.i.i58, %41
  %.0.lcssa.i.i64 = phi i64 [ 0, %41 ], [ %46, %.lr.ph.i.i58 ]
  %47 = add i64 %.0.lcssa.i.i64, %43
  %48 = icmp ugt i64 %47, 67108864
  br i1 %48, label %.thread77, label %49

49:                                               ; preds = %cw_out_bufs_len.exit.i63
  %50 = load ptr, ptr %7, align 8, !tbaa !11
  %.not.i65 = icmp eq ptr %50, null
  br i1 %.not.i65, label %56, label %51

51:                                               ; preds = %49
  %52 = getelementptr inbounds nuw i8, ptr %50, i64 40
  %53 = load i32, ptr %52, align 8, !tbaa !88
  %54 = icmp ne i32 %53, %2
  %55 = icmp eq i32 %2, 2
  %or.cond.i66 = or i1 %55, %54
  br i1 %or.cond.i66, label %56, label %cw_out_append.exit70

56:                                               ; preds = %51, %49
  %57 = load ptr, ptr @Curl_ccalloc, align 8, !tbaa !19
  %58 = tail call ptr %57(i64 noundef 1, i64 noundef 48) #5
  %.not.i21.i68 = icmp eq ptr %58, null
  br i1 %.not.i21.i68, label %.thread77, label %.thread.i69

.thread.i69:                                      ; preds = %56
  %59 = getelementptr inbounds nuw i8, ptr %58, i64 40
  store i32 %2, ptr %59, align 8, !tbaa !88
  %60 = getelementptr inbounds nuw i8, ptr %58, i64 8
  tail call void @Curl_dyn_init(ptr noundef nonnull %60, i64 noundef 67108864) #5
  %61 = load ptr, ptr %7, align 8, !tbaa !11
  store ptr %61, ptr %58, align 8, !tbaa !14
  store ptr %58, ptr %7, align 8, !tbaa !11
  br label %cw_out_append.exit70

cw_out_append.exit70:                             ; preds = %51, %.thread.i69
  %62 = phi ptr [ %58, %.thread.i69 ], [ %50, %51 ]
  %63 = getelementptr inbounds nuw i8, ptr %62, i64 8
  %64 = tail call i32 @Curl_dyn_addn(ptr noundef nonnull %63, ptr noundef %42, i64 noundef %43) #5
  %.not53 = icmp eq i32 %64, 0
  br i1 %.not53, label %65, label %.thread77

65:                                               ; preds = %cw_out_append.exit70, %38
  br label %.thread77

.thread77:                                        ; preds = %65, %cw_out_append.exit70, %cw_out_bufs_len.exit.i63, %56
  %.1.ph = phi i32 [ %64, %cw_out_append.exit70 ], [ 0, %65 ], [ 27, %56 ], [ 100, %cw_out_bufs_len.exit.i63 ]
  call void @llvm.lifetime.end.p0(i64 8, ptr nonnull %6) #5
  br label %67

66:                                               ; preds = %.thread
  call void @llvm.lifetime.end.p0(i64 8, ptr nonnull %6) #5
  br label %cw_out_bufs_free.exit

67:                                               ; preds = %.thread77, %35
  %.037 = phi i32 [ %36, %35 ], [ %.1.ph, %.thread77 ]
  %.not55 = icmp eq i32 %.037, 0
  br i1 %.not55, label %cw_out_bufs_free.exit, label %..thread80_crit_edge

..thread80_crit_edge:                             ; preds = %67
  %.pre = load ptr, ptr %7, align 8, !tbaa !11
  br label %.thread80

.thread80:                                        ; preds = %..thread80_crit_edge, %12
  %68 = phi ptr [ %.pre, %..thread80_crit_edge ], [ %.pre87, %12 ]
  %.03783 = phi i32 [ %.037, %..thread80_crit_edge ], [ %13, %12 ]
  %69 = getelementptr inbounds nuw i8, ptr %0, i64 40
  %70 = load i8, ptr %69, align 8
  %71 = or i8 %70, 2
  store i8 %71, ptr %69, align 8
  %.not5.i = icmp eq ptr %68, null
  br i1 %.not5.i, label %cw_out_bufs_free.exit, label %.lr.ph.i

.lr.ph.i:                                         ; preds = %.thread80, %.lr.ph.i
  %72 = phi ptr [ %73, %.lr.ph.i ], [ %68, %.thread80 ]
  %73 = load ptr, ptr %72, align 8, !tbaa !14
  %74 = getelementptr inbounds nuw i8, ptr %72, i64 8
  tail call void @Curl_dyn_free(ptr noundef nonnull %74) #5
  %75 = load ptr, ptr @Curl_cfree, align 8, !tbaa !19
  tail call void %75(ptr noundef nonnull %72) #5
  store ptr %73, ptr %7, align 8, !tbaa !11
  %.not.i71 = icmp eq ptr %73, null
  br i1 %.not.i71, label %cw_out_bufs_free.exit, label %.lr.ph.i, !llvm.loop !20

cw_out_bufs_free.exit:                            ; preds = %.lr.ph.i, %26, %cw_out_bufs_len.exit.i, %.thread80, %66, %67, %cw_out_append.exit
  %.038 = phi i32 [ %37, %66 ], [ %34, %cw_out_append.exit ], [ 0, %67 ], [ %.03783, %.thread80 ], [ 27, %26 ], [ 100, %cw_out_bufs_len.exit.i ], [ %.03783, %.lr.ph.i ]
  ret i32 %.038
}